target datalayout = "e-m:e-p270:32:32-p271:32:32-p272:64:64-i64:64-i128:128-f80:128-n8:16:32:64-S128"
target triple = "x86_64-pc-linux-gnu"

@_ZN6icu_77L23gTemporalLeapMonthCodesE = internal constant [13 x ptr] [ptr @.str.3, ptr @.str.4, ptr @.str.5, ptr @.str.6, ptr @.str.7, ptr @.str.8, ptr @.str.9, ptr @.str.10, ptr @.str.11, ptr @.str.12, ptr @.str.13, ptr @.str.14, ptr null], align 16

; Function Attrs: inlinehint mustprogress nounwind uwtable
define internal noundef signext i8 @_ZL9U_FAILURE10UErrorCode(i32 noundef %0) #4 {
  %2 = alloca i32, align 4
  store i32 %0, ptr %2, align 4, !tbaa !30
  %3 = load i32, ptr %2, align 4, !tbaa !30
  %4 = icmp sgt i32 %3, 0
  %5 = zext i1 %4 to i8
  ret i8 %5
}

; Function Attrs: mustprogress uwtable
define noundef ptr @_ZNK6icu_7715ChineseCalendar20getTemporalMonthCodeER10UErrorCode(ptr noundef nonnull align 8 dereferenceable(193) %0, ptr noundef nonnull align 4 dereferenceable(4) %1) unnamed_addr #0 align 2 {
  %3 = alloca ptr, align 8
  %4 = alloca ptr, align 8
  %5 = alloca ptr, align 8
  %6 = alloca i32, align 4
  %7 = alloca i32, align 4
  %8 = alloca i32, align 4
  store ptr %0, ptr %4, align 8, !tbaa !3
  store ptr %1, ptr %5, align 8, !tbaa !10
  %9 = load ptr, ptr %4, align 8
  call void @llvm.lifetime.start.p0(i64 4, ptr %6) #13
  %10 = load ptr, ptr %5, align 8, !tbaa !10
  %11 = call noundef i32 @_ZNK6icu_778Calendar3getE19UCalendarDateFieldsR10UErrorCode(ptr noundef nonnull align 8 dereferenceable(192) %9, i32 noundef 22, ptr noundef nonnull align 4 dereferenceable(4) %10)
  store i32 %11, ptr %6, align 4, !tbaa !29
  %12 = load ptr, ptr %5, align 8, !tbaa !10
  %13 = load i32, ptr %12, align 4, !tbaa !30
  %14 = call noundef signext i8 @_ZL9U_FAILURE10UErrorCode(i32 noundef %13)
  %15 = icmp ne i8 %14, 0
  br i1 %15, label %16, label %17

16:                                               ; preds = %2
  store ptr null, ptr %3, align 8
  store i32 1, ptr %7, align 4
  br label %37

17:                                               ; preds = %2
  %18 = load i32, ptr %6, align 4, !tbaa !29
  %19 = icmp ne i32 %18, 0
  br i1 %19, label %20, label %34

20:                                               ; preds = %17
  call void @llvm.lifetime.start.p0(i64 4, ptr %8) #13
  %21 = load ptr, ptr %5, align 8, !tbaa !10
  %22 = call noundef i32 @_ZNK6icu_778Calendar3getE19UCalendarDateFieldsR10UErrorCode(ptr noundef nonnull align 8 dereferenceable(192) %9, i32 noundef 2, ptr noundef nonnull align 4 dereferenceable(4) %21)
  store i32 %22, ptr %8, align 4, !tbaa !29
  %23 = load ptr, ptr %5, align 8, !tbaa !10
  %24 = load i32, ptr %23, align 4, !tbaa !30
  %25 = call noundef signext i8 @_ZL9U_FAILURE10UErrorCode(i32 noundef %24)
  %26 = icmp ne i8 %25, 0
  br i1 %26, label %27, label %28

27:                                               ; preds = %20
  store ptr null, ptr %3, align 8
  store i32 1, ptr %7, align 4
  br label %33

28:                                               ; preds = %20
  %29 = load i32, ptr %8, align 4, !tbaa !29
  %30 = sext i32 %29 to i64
  %31 = getelementptr inbounds [13 x ptr], ptr @_ZN6icu_77L23gTemporalLeapMonthCodesE, i64 0, i64 %30
  %32 = load ptr, ptr %31, align 8, !tbaa !64
  store ptr %32, ptr %3, align 8
  store i32 1, ptr %7, align 4
  br label %33

33:                                               ; preds = %28, %27
  call void @llvm.lifetime.end.p0(i64 4, ptr %8) #13
  br label %37

34:                                               ; preds = %17
  %35 = load ptr, ptr %5, align 8, !tbaa !10
  %36 = call noundef ptr @_ZNK6icu_778Calendar20getTemporalMonthCodeER10UErrorCode(ptr noundef nonnull align 8 dereferenceable(192) %9, ptr noundef nonnull align 4 dereferenceable(4) %35)
  store ptr %36, ptr %3, align 8
  store i32 1, ptr %7, align 4
  br label %37

37:                                               ; preds = %34, %33, %16
  call void @llvm.lifetime.end.p0(i64 4, ptr %6) #13
  %38 = load ptr, ptr %3, align 8
  ret ptr %38
}