; Function Attrs: mustprogress uwtable
define noundef ptr @_ZNK6icu_7715ChineseCalendar20getTemporalMonthCodeER10UErrorCode(ptr noundef nonnull align 8 dereferenceable(193) %0, ptr noundef nonnull align 4 dereferenceable(4) %1) unnamed_addr #0 align 2 {
  %3 = tail call noundef i32 @_ZNK6icu_778Calendar3getE19UCalendarDateFieldsR10UErrorCode(ptr noundef nonnull align 8 dereferenceable(192) %0, i32 noundef 22, ptr noundef nonnull align 4 dereferenceable(4) %1)
  %4 = load i32, ptr %1, align 4, !tbaa !21
  %5 = icmp slt i32 %4, 1
  br i1 %5, label %6, label %17

6:                                                ; preds = %2
  %.not8 = icmp eq i32 %3, 0
  br i1 %.not8, label %15, label %7

7:                                                ; preds = %6
  %8 = tail call noundef i32 @_ZNK6icu_778Calendar3getE19UCalendarDateFieldsR10UErrorCode(ptr noundef nonnull align 8 dereferenceable(192) %0, i32 noundef 2, ptr noundef nonnull align 4 dereferenceable(4) %1)
  %9 = load i32, ptr %1, align 4, !tbaa !21
  %10 = icmp slt i32 %9, 1
  br i1 %10, label %11, label %17

11:                                               ; preds = %7
  %12 = sext i32 %8 to i64
  %13 = getelementptr inbounds [13 x ptr], ptr @_ZN6icu_77L23gTemporalLeapMonthCodesE, i64 0, i64 %12
  %14 = load ptr, ptr %13, align 8, !tbaa !35
  br label %17

15:                                               ; preds = %6
  %16 = tail call noundef ptr @_ZNK6icu_778Calendar20getTemporalMonthCodeER10UErrorCode(ptr noundef nonnull align 8 dereferenceable(192) %0, ptr noundef nonnull align 4 dereferenceable(4) %1)
  br label %17

17:                                               ; preds = %11, %7, %2, %15
  %.0 = phi ptr [ %16, %15 ], [ null, %2 ], [ %14, %11 ], [ null, %7 ]
  ret ptr %.0
}